(dp0
S'model1'
p1
(lp2
F0.34065174080606214
aF34.076523613560674
asS'model_new5 '
p3
(lp4
F0.699332908746489
aF70.99549284734469
asS'model_new1'
p5
(lp6
F0.6325143706316547
aF64.97093213142595
asS'm_abcnn1'
p7
(lp8
F0.6372709680580048
aF64.77170291985105
asS'model_new4'
p9
(lp10
F0.6954520216865896
aF70.56388398980991
asS'model_new5'
p11
(lp12
F0.6674203083153698
aF67.83901626494217
as.